; Function Attrs: fn_ret_thunk_extern nounwind null_pointer_is_valid
define dso_local noundef i32 @jent_read_entropy(ptr noundef %0, ptr noundef %1, i32 noundef %2) local_unnamed_addr #0 align 16 {
  %.not = icmp eq ptr %0, null
  br i1 %.not, label %.loopexit, label %.preheader

.preheader:                                       ; preds = %3
  %.not2224 = icmp eq i32 %2, 0
  br i1 %.not2224, label %.loopexit, label %.lr.ph

.lr.ph:                                           ; preds = %.preheader
  %4 = getelementptr inbounds i8, ptr %0, i64 36
  br label %5

5:                                                ; preds = %.lr.ph, %15
  %.01826 = phi ptr [ %1, %.lr.ph ], [ %18, %15 ]
  %.01925 = phi i32 [ %2, %.lr.ph ], [ %16, %15 ]
  %6 = tail call fastcc i32 @jent_measure_jitter(ptr noundef nonnull %0, ptr noundef null), !range !5
  br label %.outer.i

.outer.i:                                         ; preds = %9, %5
  %.0.ph.i = phi i32 [ %10, %9 ], [ 0, %5 ]
  br label %7

7:                                                ; preds = %7, %.outer.i
  %8 = tail call fastcc i32 @jent_measure_jitter(ptr noundef nonnull %0, ptr noundef null), !range !5
  %.not.i = icmp eq i32 %8, 0
  br i1 %.not.i, label %9, label %7, !llvm.loop !6

9:                                                ; preds = %7
  %10 = add nuw i32 %.0.ph.i, 1
  %11 = load i32, ptr %4, align 4
  %12 = shl i32 %11, 8
  %.not6.i = icmp ult i32 %10, %12
  br i1 %.not6.i, label %.outer.i, label %jent_gen_entropy.exit, !llvm.loop !6

jent_gen_entropy.exit:                            ; preds = %9
  %.0 = tail call i32 @llvm.umin.i32(i32 %.01925, i32 32)
  %13 = load ptr, ptr %0, align 8
  %14 = tail call i32 @jent_read_random_block(ptr noundef %13, ptr noundef %.01826, i32 noundef %.0) #4
  %.not23 = icmp eq i32 %14, 0
  br i1 %.not23, label %15, label %.loopexit

15:                                               ; preds = %jent_gen_entropy.exit
  %16 = sub i32 %.01925, %.0
  %17 = zext nneg i32 %.0 to i64
  %18 = getelementptr i8, ptr %.01826, i64 %17
  %.not22 = icmp eq i32 %16, 0
  br i1 %.not22, label %.loopexit, label %5, !llvm.loop !8

.loopexit:                                        ; preds = %jent_gen_entropy.exit, %15, %.preheader, %3
  %.020 = phi i32 [ -1, %3 ], [ 0, %.preheader ], [ -1, %jent_gen_entropy.exit ], [ 0, %15 ]
  ret i32 %.020
}